; Function Attrs: nofree norecurse nosync nounwind memory(read, inaccessiblemem: none) uwtable
define dso_local noundef zeroext i1 @Curl_conn_is_ip_connected(ptr noundef readonly captures(none) %0, i32 noundef %1) local_unnamed_addr #7 {
  %3 = getelementptr inbounds nuw i8, ptr %0, i64 24
  %4 = load ptr, ptr %3, align 8, !tbaa !56
  %5 = getelementptr inbounds nuw i8, ptr %4, i64 608
  %6 = sext i32 %1 to i64
  %7 = getelementptr inbounds [2 x ptr], ptr %5, i64 0, i64 %6
  %.09 = load ptr, ptr %7, align 8, !tbaa !51
  %.not10 = icmp eq ptr %.09, null
  br i1 %.not10, label %._crit_edge, label %.lr.ph

8:                                                ; preds = %13
  %9 = getelementptr inbounds nuw i8, ptr %.011, i64 8
  %.0 = load ptr, ptr %9, align 8, !tbaa !51
  %.not = icmp eq ptr %.0, null
  br i1 %.not, label %._crit_edge, label %.lr.ph, !llvm.loop !133

.lr.ph:                                           ; preds = %2, %8
  %.011 = phi ptr [ %.0, %8 ], [ %.09, %2 ]
  %10 = getelementptr inbounds nuw i8, ptr %.011, i64 36
  %11 = load i8, ptr %10, align 4
  %12 = and i8 %11, 1
  %.not7.not.not = icmp ne i8 %12, 0
  br i1 %.not7.not.not, label %._crit_edge, label %13

13:                                               ; preds = %.lr.ph
  %14 = load ptr, ptr %.011, align 8, !tbaa !15
  %15 = getelementptr inbounds nuw i8, ptr %14, i64 8
  %16 = load i32, ptr %15, align 8, !tbaa !134
  %17 = and i32 %16, 1
  %.not8 = icmp eq i32 %17, 0
  br i1 %.not8, label %8, label %._crit_edge

._crit_edge:                                      ; preds = %.lr.ph, %13, %8, %2
  %.06 = phi i1 [ false, %2 ], [ %.not7.not.not, %8 ], [ %.not7.not.not, %13 ], [ %.not7.not.not, %.lr.ph ]
  ret i1 %.06
}